; Function Attrs: null_pointer_is_valid sspstrong uwtable
define internal fastcc void @dissect_NavIC_GridModelParameter_r16_PDU(ptr noundef %0, ptr noundef %1, ptr noundef %2) unnamed_addr #0 {
  %4 = alloca %struct._asn1_ctx_t, align 8
  call void @llvm.lifetime.start.p0(i64 208, ptr nonnull %4) #10
  call void @asn1_ctx_init(ptr noundef nonnull %4, i32 noundef 1, i1 noundef zeroext false, ptr noundef %1)
  %5 = load i32, ptr @hf_lpp_NavIC_GridModelParameter_r16_PDU, align 4
  %6 = load i32, ptr @ett_lpp_NavIC_GridModelParameter_r16, align 4
  %7 = call i32 @dissect_per_sequence(ptr noundef %0, i32 noundef 0, ptr noundef nonnull %4, ptr noundef %2, i32 noundef %5, i32 noundef %6, ptr noundef nonnull @NavIC_GridModelParameter_r16_sequence)
  call void @llvm.lifetime.end.p0(i64 208, ptr nonnull %4) #10
  ret void
}